; Function Attrs: mustprogress uwtable
define void @_ZNK10open_spiel10algorithms9EFCEState12LegalActionsEv(ptr dead_on_unwind noalias writable sret(%"class.std::vector.23") align 8 %0, ptr noundef nonnull align 8 dereferenceable(176) %1) unnamed_addr #3 align 2 personality ptr @__gxx_personality_v0 {
  %3 = alloca %"class.std::__cxx11::basic_string", align 8
  %4 = alloca i32, align 4
  %5 = load ptr, ptr %1, align 8
  %6 = getelementptr inbounds i8, ptr %5, i64 16
  %7 = load ptr, ptr %6, align 8
  %8 = tail call noundef i32 %7(ptr noundef nonnull align 8 dereferenceable(60) %1)
  %9 = icmp eq i32 %8, -2
  br i1 %9, label %10, label %14

10:                                               ; preds = %2
  store i32 55, ptr %4, align 4
  call void @_ZN10open_spiel8internal11SpielStrCatIJRA138_KcRA2_S2_iRA14_S2_RA21_S2_S6_EEENSt7__cxx1112basic_stringIcSt11char_traitsIcESaIcEEEDpOT_(ptr dead_on_unwind nonnull writable sret(%"class.std::__cxx11::basic_string") align 8 %3, ptr noundef nonnull align 1 dereferenceable(138) @.str, ptr noundef nonnull align 1 dereferenceable(2) @.str.1, ptr noundef nonnull align 4 dereferenceable(4) %4, ptr noundef nonnull align 1 dereferenceable(14) @.str.2, ptr noundef nonnull align 1 dereferenceable(21) @.str.3, ptr noundef nonnull align 1 dereferenceable(2) @.str.4)
  invoke void @_ZN10open_spiel15SpielFatalErrorERKNSt7__cxx1112basic_stringIcSt11char_traitsIcESaIcEEE(ptr noundef nonnull align 8 dereferenceable(32) %3) #21
          to label %11 unwind label %12

11:                                               ; preds = %10
  unreachable

12:                                               ; preds = %10
  %13 = landingpad { ptr, i32 }
          cleanup
  call void @_ZNSt7__cxx1112basic_stringIcSt11char_traitsIcESaIcEED1Ev(ptr noundef nonnull align 8 dereferenceable(32) %3) #20
  resume { ptr, i32 } %13

14:                                               ; preds = %2
  %15 = load ptr, ptr %1, align 8
  %16 = getelementptr inbounds i8, ptr %15, i64 88
  %17 = load ptr, ptr %16, align 8
  %18 = tail call noundef zeroext i1 %17(ptr noundef nonnull align 8 dereferenceable(72) %1)
  br i1 %18, label %19, label %20

19:                                               ; preds = %14
  tail call void @llvm.memset.p0.i64(ptr noundef nonnull align 8 dereferenceable(24) %0, i8 0, i64 24, i1 false)
  br label %35

20:                                               ; preds = %14
  %21 = load ptr, ptr %1, align 8
  %22 = getelementptr inbounds i8, ptr %21, i64 128
  %23 = load ptr, ptr %22, align 8
  %24 = tail call noundef zeroext i1 %23(ptr noundef nonnull align 8 dereferenceable(60) %1)
  br i1 %24, label %25, label %29

25:                                               ; preds = %20
  %26 = load ptr, ptr %1, align 8
  %27 = getelementptr inbounds i8, ptr %26, i64 216
  %28 = load ptr, ptr %27, align 8
  tail call void %28(ptr dead_on_unwind writable sret(%"class.std::vector.23") align 8 %0, ptr noundef nonnull align 8 dereferenceable(176) %1)
  br label %35

29:                                               ; preds = %20
  %30 = getelementptr inbounds nuw i8, ptr %1, i64 64
  %31 = load ptr, ptr %30, align 8
  %32 = load ptr, ptr %31, align 8
  %33 = getelementptr inbounds i8, ptr %32, i64 48
  %34 = load ptr, ptr %33, align 8
  tail call void %34(ptr dead_on_unwind writable sret(%"class.std::vector.23") align 8 %0, ptr noundef nonnull align 8 dereferenceable(60) %31)
  br label %35

35:                                               ; preds = %29, %25, %19
  ret void
}